; ModuleID = '54/1345.cpp'
source_filename = "54/1345.cpp"
target datalayout = "e-m:e-p270:32:32-p271:32:32-p272:64:64-i64:64-f80:128-n8:16:32:64-S128"
target triple = "x86_64-pc-linux-gnu"

%"class.std::ios_base::Init" = type { i8 }
%"class.std::basic_istream" = type { i32 (...)**, i64, %"class.std::basic_ios" }
%"class.std::basic_ios" = type { %"class.std::ios_base", %"class.std::basic_ostream"*, i8, i8, %"class.std::basic_streambuf"*, %"class.std::ctype"*, %"class.std::num_put"*, %"class.std::num_get"* }
%"class.std::ios_base" = type { i32 (...)**, i64, i64, i32, i32, i32, %"struct.std::ios_base::_Callback_list"*, %"struct.std::ios_base::_Words", [8 x %"struct.std::ios_base::_Words"], i32, %"struct.std::ios_base::_Words"*, %"class.std::locale" }
%"struct.std::ios_base::_Callback_list" = type { %"struct.std::ios_base::_Callback_list"*, void (i32, %"class.std::ios_base"*, i32)*, i32, i32 }
%"struct.std::ios_base::_Words" = type { i8*, i64 }
%"class.std::locale" = type { %"class.std::locale::_Impl"* }
%"class.std::locale::_Impl" = type { i32, %"class.std::locale::facet"**, i64, %"class.std::locale::facet"**, i8** }
%"class.std::locale::facet" = type <{ i32 (...)**, i32, [4 x i8] }>
%"class.std::basic_ostream" = type { i32 (...)**, %"class.std::basic_ios" }
%"class.std::basic_streambuf" = type { i32 (...)**, i8*, i8*, i8*, i8*, i8*, i8*, %"class.std::locale" }
%"class.std::ctype" = type <{ %"class.std::locale::facet.base", [4 x i8], %struct.__locale_struct*, i8, [7 x i8], i32*, i32*, i16*, i8, [256 x i8], [256 x i8], i8, [6 x i8] }>
%"class.std::locale::facet.base" = type <{ i32 (...)**, i32 }>
%struct.__locale_struct = type { [13 x %struct.__locale_data*], i16*, i32*, i32*, [13 x i8*] }
%struct.__locale_data = type opaque
%"class.std::num_put" = type { %"class.std::locale::facet.base", [4 x i8] }
%"class.std::num_get" = type { %"class.std::locale::facet.base", [4 x i8] }

@_ZStL8__ioinit = internal global %"class.std::ios_base::Init" zeroinitializer, align 1
@__dso_handle = external hidden global i8
@_ZSt3cin = external dso_local global %"class.std::basic_istream", align 8
@_ZSt4cout = external dso_local global %"class.std::basic_ostream", align 8
@llvm.global_ctors = appending global [1 x { i32, void ()*, i8* }] [{ i32, void ()*, i8* } { i32 65535, void ()* @_GLOBAL__sub_I_1345.cpp, i8* null }]

; Function Attrs: noinline uwtable
define internal void @__cxx_global_var_init() #0 section ".text.startup" {
  call void @_ZNSt8ios_base4InitC1Ev(%"class.std::ios_base::Init"* @_ZStL8__ioinit)
  %1 = call i32 @__cxa_atexit(void (i8*)* bitcast (void (%"class.std::ios_base::Init"*)* @_ZNSt8ios_base4InitD1Ev to void (i8*)*), i8* getelementptr inbounds (%"class.std::ios_base::Init", %"class.std::ios_base::Init"* @_ZStL8__ioinit, i32 0, i32 0), i8* @__dso_handle) #3
  ret void
}

declare dso_local void @_ZNSt8ios_base4InitC1Ev(%"class.std::ios_base::Init"*) unnamed_addr #1

; Function Attrs: nounwind
declare dso_local void @_ZNSt8ios_base4InitD1Ev(%"class.std::ios_base::Init"*) unnamed_addr #2

; Function Attrs: nounwind
declare dso_local i32 @__cxa_atexit(void (i8*)*, i8*, i8*) #3

; Function Attrs: noinline nounwind uwtable
define dso_local double @_Z5appleddd(double %0, double %1, double %2) #4 {
  %4 = alloca double, align 8
  %5 = alloca double, align 8
  %6 = alloca double, align 8
  %7 = alloca double, align 8
  %8 = alloca i32, align 4
  store double %0, double* %4, align 8
  store double %1, double* %5, align 8
  store double %2, double* %6, align 8
  %9 = load double, double* %6, align 8
  store double %9, double* %7, align 8
  store i32 1, i32* %8, align 4
  br label %10

10:                                               ; preds = %24, %3
  %11 = load i32, i32* %8, align 4
  %12 = sitofp i32 %11 to double
  %13 = load double, double* %4, align 8
  %14 = fcmp ole double %12, %13
  br i1 %14, label %15, label %27

15:                                               ; preds = %10
  %16 = load double, double* %7, align 8
  %17 = load double, double* %4, align 8
  %18 = fmul double %16, %17
  %19 = load double, double* %4, align 8
  %20 = fsub double %19, 1.000000e+00
  %21 = fdiv double %18, %20
  %22 = load double, double* %5, align 8
  %23 = fadd double %21, %22
  store double %23, double* %7, align 8
  br label %24

24:                                               ; preds = %15
  %25 = load i32, i32* %8, align 4
  %26 = add nsw i32 %25, 1
  store i32 %26, i32* %8, align 4
  br label %10

27:                                               ; preds = %10
  %28 = load double, double* %7, align 8
  ret double %28
}

; Function Attrs: noinline norecurse uwtable
define dso_local i32 @main() #5 {
  %1 = alloca i32, align 4
  %2 = alloca double, align 8
  %3 = alloca double, align 8
  %4 = alloca i32, align 4
  store i32 0, i32* %1, align 4
  %5 = call dereferenceable(280) %"class.std::basic_istream"* @_ZNSirsERd(%"class.std::basic_istream"* @_ZSt3cin, double* dereferenceable(8) %2)
  %6 = call dereferenceable(280) %"class.std::basic_istream"* @_ZNSirsERd(%"class.std::basic_istream"* %5, double* dereferenceable(8) %3)
  store i32 1, i32* %4, align 4
  br label %7

7:                                                ; preds = %31, %0
  %8 = load double, double* %2, align 8
  %9 = load double, double* %3, align 8
  %10 = load i32, i32* %4, align 4
  %11 = sitofp i32 %10 to double
  %12 = call double @_Z5appleddd(double %8, double %9, double %11)
  %13 = load double, double* %2, align 8
  %14 = load double, double* %3, align 8
  %15 = load i32, i32* %4, align 4
  %16 = sitofp i32 %15 to double
  %17 = call double @_Z5appleddd(double %13, double %14, double %16)
  %18 = fptosi double %17 to i32
  %19 = sitofp i32 %18 to double
  %20 = fsub double %12, %19
  %21 = fcmp oeq double %20, 0.000000e+00
  br i1 %21, label %22, label %30

22:                                               ; preds = %7
  %23 = load double, double* %2, align 8
  %24 = load double, double* %3, align 8
  %25 = load i32, i32* %4, align 4
  %26 = sitofp i32 %25 to double
  %27 = call double @_Z5appleddd(double %23, double %24, double %26)
  %28 = fptosi double %27 to i32
  %29 = call dereferenceable(272) %"class.std::basic_ostream"* @_ZNSolsEi(%"class.std::basic_ostream"* @_ZSt4cout, i32 %28)
  br label %34

30:                                               ; preds = %7
  br label %31

31:                                               ; preds = %30
  %32 = load i32, i32* %4, align 4
  %33 = add nsw i32 %32, 1
  store i32 %33, i32* %4, align 4
  br label %7

34:                                               ; preds = %22
  ret i32 0
}

declare dso_local dereferenceable(280) %"class.std::basic_istream"* @_ZNSirsERd(%"class.std::basic_istream"*, double* dereferenceable(8)) #1

declare dso_local dereferenceable(272) %"class.std::basic_ostream"* @_ZNSolsEi(%"class.std::basic_ostream"*, i32) #1

; Function Attrs: noinline uwtable
define internal void @_GLOBAL__sub_I_1345.cpp() #0 section ".text.startup" {
  call void @__cxx_global_var_init()
  ret void
}


!llvm.module.flags = !{!0}
!llvm.ident = !{!1}

!0 = !{i32 1, !"wchar_size", i32 4}
!1 = !{!"clang version 10.0.0-4ubuntu1 "}
