; ModuleID = 'source-C-CXX/53/1345.cpp'
source_filename = "source-C-CXX/53/1345.cpp"
target datalayout = "e-m:e-p270:32:32-p271:32:32-p272:64:64-i64:64-f80:128-n8:16:32:64-S128"
target triple = "x86_64-pc-linux-gnu"

%"class.std::ios_base::Init" = type { i8 }
%"class.std::basic_istream" = type { i32 (...)**, i64, %"class.std::basic_ios" }
%"class.std::basic_ios" = type { %"class.std::ios_base", %"class.std::basic_ostream"*, i8, i8, %"class.std::basic_streambuf"*, %"class.std::ctype"*, %"class.std::num_put"*, %"class.std::num_get"* }
%"class.std::ios_base" = type { i32 (...)**, i64, i64, i32, i32, i32, %"struct.std::ios_base::_Callback_list"*, %"struct.std::ios_base::_Words", [8 x %"struct.std::ios_base::_Words"], i32, %"struct.std::ios_base::_Words"*, %"class.std::locale" }
%"struct.std::ios_base::_Callback_list" = type { %"struct.std::ios_base::_Callback_list"*, void (i32, %"class.std::ios_base"*, i32)*, i32, i32 }
%"struct.std::ios_base::_Words" = type { i8*, i64 }
%"class.std::locale" = type { %"class.std::locale::_Impl"* }
%"class.std::locale::_Impl" = type { i32, %"class.std::locale::facet"**, i64, %"class.std::locale::facet"**, i8** }
%"class.std::locale::facet" = type <{ i32 (...)**, i32, [4 x i8] }>
%"class.std::basic_ostream" = type { i32 (...)**, %"class.std::basic_ios" }
%"class.std::basic_streambuf" = type { i32 (...)**, i8*, i8*, i8*, i8*, i8*, i8*, %"class.std::locale" }
%"class.std::ctype" = type <{ %"class.std::locale::facet.base", [4 x i8], %struct.__locale_struct*, i8, [7 x i8], i32*, i32*, i16*, i8, [256 x i8], [256 x i8], i8, [6 x i8] }>
%"class.std::locale::facet.base" = type <{ i32 (...)**, i32 }>
%struct.__locale_struct = type { [13 x %struct.__locale_data*], i16*, i32*, i32*, [13 x i8*] }
%struct.__locale_data = type opaque
%"class.std::num_put" = type { %"class.std::locale::facet.base", [4 x i8] }
%"class.std::num_get" = type { %"class.std::locale::facet.base", [4 x i8] }

@_ZStL8__ioinit = internal global %"class.std::ios_base::Init" zeroinitializer, align 1
@__dso_handle = external hidden global i8
@_ZSt3cin = external global %"class.std::basic_istream", align 8
@_ZSt4cout = external global %"class.std::basic_ostream", align 8
@llvm.global_ctors = appending global [1 x { i32, void ()*, i8* }] [{ i32, void ()*, i8* } { i32 65535, void ()* @_GLOBAL__sub_I_1345.cpp, i8* null }]

declare void @_ZNSt8ios_base4InitC1Ev(%"class.std::ios_base::Init"* nonnull align 1 dereferenceable(1)) unnamed_addr #0

; Function Attrs: nounwind
declare void @_ZNSt8ios_base4InitD1Ev(%"class.std::ios_base::Init"* nonnull align 1 dereferenceable(1)) unnamed_addr #1

; Function Attrs: nofree nounwind
declare i32 @__cxa_atexit(void (i8*)*, i8*, i8*) local_unnamed_addr #2

; Function Attrs: mustprogress nofree norecurse nosync nounwind readnone sspstrong uwtable willreturn
define dso_local double @_Z5appleddd(double %0, double %1, double %2) local_unnamed_addr #3 {
  %4 = fadd double %0, -1.000000e+00
  %5 = fcmp ult double %0, 1.000000e+00
  br i1 %5, label %6, label %8

6:                                                ; preds = %8, %3
  %7 = phi double [ %2, %3 ], [ %13, %8 ]
  ret double %7

8:                                                ; preds = %3, %8
  %9 = phi i32 [ %14, %8 ], [ 1, %3 ]
  %10 = phi double [ %13, %8 ], [ %2, %3 ]
  %11 = fmul double %10, %0
  %12 = fdiv double %11, %4
  %13 = fadd double %12, %1
  %14 = add nuw nsw i32 %9, 1
  %15 = sitofp i32 %14 to double
  %16 = fcmp ugt double %15, %0
  br i1 %16, label %6, label %8, !llvm.loop !5
}

; Function Attrs: argmemonly mustprogress nofree nosync nounwind willreturn
declare void @llvm.lifetime.start.p0i8(i64 immarg, i8* nocapture) #4

; Function Attrs: argmemonly mustprogress nofree nosync nounwind willreturn
declare void @llvm.lifetime.end.p0i8(i64 immarg, i8* nocapture) #4

; Function Attrs: mustprogress norecurse sspstrong uwtable
define dso_local i32 @main() local_unnamed_addr #5 {
  %1 = alloca double, align 8
  %2 = alloca double, align 8
  %3 = bitcast double* %1 to i8*
  call void @llvm.lifetime.start.p0i8(i64 8, i8* nonnull %3) #7
  %4 = bitcast double* %2 to i8*
  call void @llvm.lifetime.start.p0i8(i64 8, i8* nonnull %4) #7
  %5 = call nonnull align 8 dereferenceable(16) %"class.std::basic_istream"* @_ZNSi10_M_extractIdEERSiRT_(%"class.std::basic_istream"* nonnull align 8 dereferenceable(16) @_ZSt3cin, double* nonnull align 8 dereferenceable(8) %1)
  %6 = call nonnull align 8 dereferenceable(16) %"class.std::basic_istream"* @_ZNSi10_M_extractIdEERSiRT_(%"class.std::basic_istream"* nonnull align 8 dereferenceable(16) %5, double* nonnull align 8 dereferenceable(8) %2)
  %7 = load double, double* %1, align 8, !tbaa !7
  %8 = load double, double* %2, align 8, !tbaa !7
  %9 = fadd double %7, -1.000000e+00
  %10 = fcmp ult double %7, 1.000000e+00
  br i1 %10, label %48, label %11

11:                                               ; preds = %0, %32
  %12 = phi i32 [ %37, %32 ], [ 1, %0 ]
  %13 = sitofp i32 %12 to double
  br label %14

14:                                               ; preds = %11, %14
  %15 = phi i32 [ %20, %14 ], [ 1, %11 ]
  %16 = phi double [ %19, %14 ], [ %13, %11 ]
  %17 = fmul double %7, %16
  %18 = fdiv double %17, %9
  %19 = fadd double %8, %18
  %20 = add nuw nsw i32 %15, 1
  %21 = sitofp i32 %20 to double
  %22 = fcmp ult double %7, %21
  br i1 %22, label %23, label %14, !llvm.loop !5

23:                                               ; preds = %14, %23
  %24 = phi i32 [ %29, %23 ], [ 1, %14 ]
  %25 = phi double [ %28, %23 ], [ %13, %14 ]
  %26 = fmul double %7, %25
  %27 = fdiv double %26, %9
  %28 = fadd double %8, %27
  %29 = add nuw nsw i32 %24, 1
  %30 = sitofp i32 %29 to double
  %31 = fcmp ult double %7, %30
  br i1 %31, label %32, label %23, !llvm.loop !5

32:                                               ; preds = %23
  %33 = fptosi double %28 to i32
  %34 = sitofp i32 %33 to double
  %35 = fsub double %19, %34
  %36 = fcmp oeq double %35, 0.000000e+00
  %37 = add nuw nsw i32 %12, 1
  br i1 %36, label %38, label %11, !llvm.loop !11

38:                                               ; preds = %32
  br i1 %10, label %48, label %39

39:                                               ; preds = %38, %39
  %40 = phi i32 [ %45, %39 ], [ 1, %38 ]
  %41 = phi double [ %44, %39 ], [ %13, %38 ]
  %42 = fmul double %7, %41
  %43 = fdiv double %42, %9
  %44 = fadd double %8, %43
  %45 = add nuw nsw i32 %40, 1
  %46 = sitofp i32 %45 to double
  %47 = fcmp ult double %7, %46
  br i1 %47, label %48, label %39, !llvm.loop !5

48:                                               ; preds = %39, %0, %38
  %49 = phi double [ %13, %38 ], [ 1.000000e+00, %0 ], [ %44, %39 ]
  %50 = fptosi double %49 to i32
  %51 = call nonnull align 8 dereferenceable(8) %"class.std::basic_ostream"* @_ZNSolsEi(%"class.std::basic_ostream"* nonnull align 8 dereferenceable(8) @_ZSt4cout, i32 %50)
  call void @llvm.lifetime.end.p0i8(i64 8, i8* nonnull %4) #7
  call void @llvm.lifetime.end.p0i8(i64 8, i8* nonnull %3) #7
  ret i32 0
}

declare nonnull align 8 dereferenceable(8) %"class.std::basic_ostream"* @_ZNSolsEi(%"class.std::basic_ostream"* nonnull align 8 dereferenceable(8), i32) local_unnamed_addr #0

declare nonnull align 8 dereferenceable(16) %"class.std::basic_istream"* @_ZNSi10_M_extractIdEERSiRT_(%"class.std::basic_istream"* nonnull align 8 dereferenceable(16), double* nonnull align 8 dereferenceable(8)) local_unnamed_addr #0

; Function Attrs: sspstrong uwtable
define internal void @_GLOBAL__sub_I_1345.cpp() #6 section ".text.startup" {
  tail call void @_ZNSt8ios_base4InitC1Ev(%"class.std::ios_base::Init"* nonnull align 1 dereferenceable(1) @_ZStL8__ioinit)
  %1 = tail call i32 @__cxa_atexit(void (i8*)* bitcast (void (%"class.std::ios_base::Init"*)* @_ZNSt8ios_base4InitD1Ev to void (i8*)*), i8* getelementptr inbounds (%"class.std::ios_base::Init", %"class.std::ios_base::Init"* @_ZStL8__ioinit, i64 0, i32 0), i8* nonnull @__dso_handle) #7
  ret void
}


!llvm.module.flags = !{!0, !1, !2, !3}
!llvm.ident = !{!4}

!0 = !{i32 1, !"wchar_size", i32 4}
!1 = !{i32 7, !"PIC Level", i32 2}
!2 = !{i32 7, !"PIE Level", i32 2}
!3 = !{i32 7, !"uwtable", i32 1}
!4 = !{!"clang version 13.0.0"}
!5 = distinct !{!5, !6}
!6 = !{!"llvm.loop.mustprogress"}
!7 = !{!8, !8, i64 0}
!8 = !{!"double", !9, i64 0}
!9 = !{!"omnipotent char", !10, i64 0}
!10 = !{!"Simple C++ TBAA"}
!11 = distinct !{!11, !6}
